target datalayout = "e-m:e-p270:32:32-p271:32:32-p272:64:64-i64:64-i128:128-f80:128-n8:16:32:64-S128"
target triple = "x86_64-pc-linux-gnu"

%struct.ossl_cmp_msg_st = type { ptr, ptr, ptr, ptr, ptr, ptr }
%struct.ossl_cmp_pkibody_st = type { i32, %union.anon }
%union.anon = type { ptr }

@.str = private unnamed_addr constant [32 x i8] c"../openssl/crypto/cmp/cmp_msg.c\00", align 1
@__func__.OSSL_CMP_MSG_get0_certreq_publickey = private unnamed_addr constant [36 x i8] c"OSSL_CMP_MSG_get0_certreq_publickey\00", align 1

; Function Attrs: inlinehint nounwind uwtable
define internal ptr @ossl_check_const_OSSL_CRMF_MSG_sk_type(ptr noundef %0) #4 {
  %2 = alloca ptr, align 8
  store ptr %0, ptr %2, align 8, !tbaa !26
  %3 = load ptr, ptr %2, align 8, !tbaa !26
  ret ptr %3
}

; Function Attrs: nounwind uwtable
define i32 @OSSL_CMP_MSG_get_bodytype(ptr noundef %0) #0 {
  %2 = alloca i32, align 4
  %3 = alloca ptr, align 8
  store ptr %0, ptr %3, align 8, !tbaa !10
  %4 = load ptr, ptr %3, align 8, !tbaa !10
  %5 = icmp ne ptr %4, null
  br i1 %5, label %6, label %11

6:                                                ; preds = %1
  %7 = load ptr, ptr %3, align 8, !tbaa !10
  %8 = getelementptr inbounds nuw %struct.ossl_cmp_msg_st, ptr %7, i32 0, i32 1
  %9 = load ptr, ptr %8, align 8, !tbaa !22
  %10 = icmp ne ptr %9, null
  br label %11

11:                                               ; preds = %6, %1
  %12 = phi i1 [ false, %1 ], [ %10, %6 ]
  %13 = zext i1 %12 to i32
  %14 = icmp ne i32 %13, 0
  %15 = xor i1 %14, true
  %16 = xor i1 %15, true
  %17 = zext i1 %16 to i32
  %18 = sext i32 %17 to i64
  %19 = call i64 @llvm.expect.i64(i64 %18, i64 1)
  %20 = icmp ne i64 %19, 0
  br i1 %20, label %22, label %21

21:                                               ; preds = %11
  store i32 -1, ptr %2, align 4
  br label %28

22:                                               ; preds = %11
  %23 = load ptr, ptr %3, align 8, !tbaa !10
  %24 = getelementptr inbounds nuw %struct.ossl_cmp_msg_st, ptr %23, i32 0, i32 1
  %25 = load ptr, ptr %24, align 8, !tbaa !22
  %26 = getelementptr inbounds nuw %struct.ossl_cmp_pkibody_st, ptr %25, i32 0, i32 0
  %27 = load i32, ptr %26, align 8, !tbaa !23
  store i32 %27, ptr %2, align 4
  br label %28

28:                                               ; preds = %22, %21
  %29 = load i32, ptr %2, align 4
  ret i32 %29
}

; Function Attrs: nounwind uwtable
define ptr @OSSL_CMP_MSG_get0_certreq_publickey(ptr noundef %0) #0 {
  %2 = alloca ptr, align 8
  %3 = alloca ptr, align 8
  %4 = alloca ptr, align 8
  %5 = alloca ptr, align 8
  %6 = alloca ptr, align 8
  %7 = alloca ptr, align 8
  %8 = alloca i32, align 4
  store ptr %0, ptr %3, align 8, !tbaa !10
  call void @llvm.lifetime.start.p0(i64 8, ptr %4) #6
  call void @llvm.lifetime.start.p0(i64 8, ptr %5) #6
  call void @llvm.lifetime.start.p0(i64 8, ptr %6) #6
  call void @llvm.lifetime.start.p0(i64 8, ptr %7) #6
  %9 = load ptr, ptr %3, align 8, !tbaa !10
  %10 = call i32 @OSSL_CMP_MSG_get_bodytype(ptr noundef %9)
  switch i32 %10, label %33 [
    i32 0, label %11
    i32 2, label %11
    i32 7, label %11
  ]

11:                                               ; preds = %1, %1, %1
  %12 = load ptr, ptr %3, align 8, !tbaa !10
  %13 = getelementptr inbounds nuw %struct.ossl_cmp_msg_st, ptr %12, i32 0, i32 1
  %14 = load ptr, ptr %13, align 8, !tbaa !22
  %15 = getelementptr inbounds nuw %struct.ossl_cmp_pkibody_st, ptr %14, i32 0, i32 1
  %16 = load ptr, ptr %15, align 8, !tbaa !25
  store ptr %16, ptr %4, align 8, !tbaa !26
  %17 = load ptr, ptr %4, align 8, !tbaa !26
  %18 = call ptr @ossl_check_const_OSSL_CRMF_MSG_sk_type(ptr noundef %17)
  %19 = call ptr @OPENSSL_sk_value(ptr noundef %18, i32 noundef 0)
  store ptr %19, ptr %5, align 8, !tbaa !28
  %20 = icmp eq ptr %19, null
  br i1 %20, label %21, label %22

21:                                               ; preds = %11
  call void @ERR_new()
  call void @ERR_set_debug(ptr noundef @.str, i32 noundef 119, ptr noundef @__func__.OSSL_CMP_MSG_get0_certreq_publickey)
  call void (i32, i32, ptr, ...) @ERR_set_error(i32 noundef 58, i32 noundef 157, ptr noundef null)
  store ptr null, ptr %2, align 8
  store i32 1, ptr %8, align 4
  br label %34

22:                                               ; preds = %11
  %23 = load ptr, ptr %5, align 8, !tbaa !28
  %24 = call ptr @OSSL_CRMF_MSG_get0_tmpl(ptr noundef %23)
  store ptr %24, ptr %6, align 8, !tbaa !30
  %25 = icmp eq ptr %24, null
  br i1 %25, label %30, label %26

26:                                               ; preds = %22
  %27 = load ptr, ptr %6, align 8, !tbaa !30
  %28 = call ptr @OSSL_CRMF_CERTTEMPLATE_get0_publicKey(ptr noundef %27)
  store ptr %28, ptr %7, align 8, !tbaa !32
  %29 = icmp eq ptr %28, null
  br i1 %29, label %30, label %31

30:                                               ; preds = %26, %22
  call void @ERR_new()
  call void @ERR_set_debug(ptr noundef @.str, i32 noundef 124, ptr noundef @__func__.OSSL_CMP_MSG_get0_certreq_publickey)
  call void (i32, i32, ptr, ...) @ERR_set_error(i32 noundef 58, i32 noundef 118, ptr noundef null)
  store ptr null, ptr %2, align 8
  store i32 1, ptr %8, align 4
  br label %34

31:                                               ; preds = %26
  %32 = load ptr, ptr %7, align 8, !tbaa !32
  store ptr %32, ptr %2, align 8
  store i32 1, ptr %8, align 4
  br label %34

33:                                               ; preds = %1
  call void @ERR_new()
  call void @ERR_set_debug(ptr noundef @.str, i32 noundef 129, ptr noundef @__func__.OSSL_CMP_MSG_get0_certreq_publickey)
  call void (i32, i32, ptr, ...) @ERR_set_error(i32 noundef 58, i32 noundef 133, ptr noundef null)
  store ptr null, ptr %2, align 8
  store i32 1, ptr %8, align 4
  br label %34

34:                                               ; preds = %33, %31, %30, %21
  call void @llvm.lifetime.end.p0(i64 8, ptr %7) #6
  call void @llvm.lifetime.end.p0(i64 8, ptr %6) #6
  call void @llvm.lifetime.end.p0(i64 8, ptr %5) #6
  call void @llvm.lifetime.end.p0(i64 8, ptr %4) #6
  %35 = load ptr, ptr %2, align 8
  ret ptr %35
}