; Function Attrs: nounwind uwtable
define ptr @OSSL_CMP_MSG_get0_certreq_publickey(ptr noundef readonly captures(address_is_null) %0) local_unnamed_addr #0 {
  %.not.i = icmp eq ptr %0, null
  br i1 %.not.i, label %.sink.split, label %2

2:                                                ; preds = %1
  %3 = getelementptr inbounds nuw i8, ptr %0, i64 8
  %4 = load ptr, ptr %3, align 8, !tbaa !17
  %.not4.i = icmp eq ptr %4, null
  br i1 %.not4.i, label %.sink.split, label %OSSL_CMP_MSG_get_bodytype.exit, !prof !18

OSSL_CMP_MSG_get_bodytype.exit:                   ; preds = %2
  %5 = load i32, ptr %4, align 8, !tbaa !19
  switch i32 %5, label %.sink.split [
    i32 0, label %6
    i32 2, label %6
    i32 7, label %6
  ]

6:                                                ; preds = %OSSL_CMP_MSG_get_bodytype.exit, %OSSL_CMP_MSG_get_bodytype.exit, %OSSL_CMP_MSG_get_bodytype.exit
  %7 = getelementptr inbounds nuw i8, ptr %4, i64 8
  %8 = load ptr, ptr %7, align 8, !tbaa !22
  %9 = tail call ptr @OPENSSL_sk_value(ptr noundef %8, i32 noundef 0) #7
  %10 = icmp eq ptr %9, null
  br i1 %10, label %.sink.split, label %11

11:                                               ; preds = %6
  %12 = tail call ptr @OSSL_CRMF_MSG_get0_tmpl(ptr noundef nonnull %9) #7
  %13 = icmp eq ptr %12, null
  br i1 %13, label %.sink.split, label %14

14:                                               ; preds = %11
  %15 = tail call ptr @OSSL_CRMF_CERTTEMPLATE_get0_publicKey(ptr noundef nonnull %12) #7
  %16 = icmp eq ptr %15, null
  br i1 %16, label %.sink.split, label %17

.sink.split:                                      ; preds = %OSSL_CMP_MSG_get_bodytype.exit, %2, %1, %11, %14, %6
  %.sink11 = phi i32 [ 119, %6 ], [ 124, %14 ], [ 124, %11 ], [ 129, %1 ], [ 129, %2 ], [ 129, %OSSL_CMP_MSG_get_bodytype.exit ]
  %.sink = phi i32 [ 157, %6 ], [ 118, %14 ], [ 118, %11 ], [ 133, %1 ], [ 133, %2 ], [ 133, %OSSL_CMP_MSG_get_bodytype.exit ]
  tail call void @ERR_new() #7
  tail call void @ERR_set_debug(ptr noundef nonnull @.str, i32 noundef %.sink11, ptr noundef nonnull @__func__.OSSL_CMP_MSG_get0_certreq_publickey) #7
  tail call void (i32, i32, ptr, ...) @ERR_set_error(i32 noundef 58, i32 noundef %.sink, ptr noundef null) #7
  br label %17

17:                                               ; preds = %.sink.split, %14
  %.0 = phi ptr [ %15, %14 ], [ null, %.sink.split ]
  ret ptr %.0
}